; Function Attrs: nounwind uwtable
define hidden ptr @SDL_GetCameraSupportedFormats_REAL(i32 noundef %0, ptr noundef writeonly captures(address_is_null) %1) local_unnamed_addr #1 {
  %.not = icmp eq ptr %1, null
  br i1 %.not, label %4, label %3

3:                                                ; preds = %2
  store i32 0, ptr %1, align 4
  br label %4

4:                                                ; preds = %3, %2
  %5 = tail call fastcc ptr @ObtainPhysicalCamera(i32 noundef %0)
  %.not32 = icmp eq ptr %5, null
  br i1 %.not32, label %ReleaseCamera.exit, label %6

6:                                                ; preds = %4
  %7 = getelementptr inbounds nuw i8, ptr %5, i64 56
  %8 = load i32, ptr %7, align 8
  %9 = add nsw i32 %8, 1
  %10 = sext i32 %9 to i64
  %11 = shl nsw i64 %10, 3
  %12 = sext i32 %8 to i64
  %13 = mul nsw i64 %12, 24
  %14 = add nsw i64 %11, %13
  %15 = tail call noalias ptr @SDL_malloc_REAL(i64 noundef %14) #11
  %.not33 = icmp eq ptr %15, null
  br i1 %.not33, label %26, label %16

16:                                               ; preds = %6
  %17 = getelementptr inbounds ptr, ptr %15, i64 %10
  %18 = getelementptr inbounds nuw i8, ptr %5, i64 48
  %19 = load ptr, ptr %18, align 8
  tail call void @llvm.memcpy.p0.p0.i64(ptr nonnull align 4 %17, ptr align 4 %19, i64 %13, i1 false)
  %20 = icmp sgt i32 %8, 0
  br i1 %20, label %.lr.ph.preheader, label %._crit_edge

.lr.ph.preheader:                                 ; preds = %16
  %wide.trip.count = zext nneg i32 %8 to i64
  br label %.lr.ph

.lr.ph:                                           ; preds = %.lr.ph.preheader, %.lr.ph
  %indvars.iv = phi i64 [ 0, %.lr.ph.preheader ], [ %indvars.iv.next, %.lr.ph ]
  %.035 = phi ptr [ %17, %.lr.ph.preheader ], [ %21, %.lr.ph ]
  %21 = getelementptr inbounds nuw i8, ptr %.035, i64 24
  %22 = getelementptr inbounds nuw ptr, ptr %15, i64 %indvars.iv
  store ptr %.035, ptr %22, align 8
  %indvars.iv.next = add nuw nsw i64 %indvars.iv, 1
  %exitcond.not = icmp eq i64 %indvars.iv.next, %wide.trip.count
  br i1 %exitcond.not, label %._crit_edge.loopexit, label %.lr.ph, !llvm.loop !12

._crit_edge.loopexit:                             ; preds = %.lr.ph
  %23 = zext nneg i32 %8 to i64
  br label %._crit_edge

._crit_edge:                                      ; preds = %16, %._crit_edge.loopexit
  %.027.lcssa = phi i64 [ %23, %._crit_edge.loopexit ], [ 0, %16 ]
  %24 = getelementptr inbounds nuw ptr, ptr %15, i64 %.027.lcssa
  store ptr null, ptr %24, align 8
  br i1 %.not, label %26, label %25

25:                                               ; preds = %._crit_edge
  store i32 %8, ptr %1, align 4
  br label %26

26:                                               ; preds = %._crit_edge, %25, %6
  %27 = load ptr, ptr %5, align 8
  tail call void @SDL_UnlockMutex_REAL(ptr noundef %27) #11
  %28 = getelementptr inbounds nuw i8, ptr %5, i64 20
  %29 = tail call i32 @SDL_AddAtomicInt_REAL(ptr noundef nonnull %28, i32 noundef -1) #11
  %30 = icmp eq i32 %29, 1
  br i1 %30, label %31, label %ReleaseCamera.exit

31:                                               ; preds = %26
  %32 = load ptr, ptr getelementptr inbounds nuw (i8, ptr @camera_driver, i64 88), align 8
  tail call void @SDL_LockRWLockForWriting_REAL(ptr noundef %32) #11
  %33 = load ptr, ptr getelementptr inbounds nuw (i8, ptr @camera_driver, i64 96), align 8
  %34 = getelementptr inbounds nuw i8, ptr %5, i64 108
  %35 = load i32, ptr %34, align 4
  %36 = zext i32 %35 to i64
  %37 = inttoptr i64 %36 to ptr
  %38 = tail call zeroext i1 @SDL_RemoveFromHashTable(ptr noundef %33, ptr noundef %37) #11
  br i1 %38, label %39, label %41

39:                                               ; preds = %31
  %40 = tail call i32 @SDL_AddAtomicInt_REAL(ptr noundef nonnull getelementptr inbounds nuw (i8, ptr @camera_driver, i64 128), i32 noundef -1) #11
  br label %41

41:                                               ; preds = %39, %31
  %42 = load ptr, ptr getelementptr inbounds nuw (i8, ptr @camera_driver, i64 88), align 8
  tail call void @SDL_UnlockRWLock_REAL(ptr noundef %42) #11
  br label %ReleaseCamera.exit

ReleaseCamera.exit:                               ; preds = %41, %26, %4
  %.026 = phi ptr [ null, %4 ], [ %15, %26 ], [ %15, %41 ]
  ret ptr %.026
}